; ModuleID = '31/400.c'
source_filename = "31/400.c"
target datalayout = "e-m:e-p270:32:32-p271:32:32-p272:64:64-i64:64-f80:128-n8:16:32:64-S128"
target triple = "x86_64-pc-linux-gnu"

%struct.student = type { [100 x i8], [100 x i8], i8, i32, [20 x i8], [100 x i8], %struct.student*, %struct.student* }

@.str = private unnamed_addr constant [3 x i8] c"%s\00", align 1
@.str.1 = private unnamed_addr constant [12 x i8] c"%s %c%d%s%s\00", align 1
@.str.2 = private unnamed_addr constant [19 x i8] c"%s %s %c %d %s %s\0A\00", align 1

; Function Attrs: noinline nounwind uwtable
define dso_local void @main() #0 {
  %1 = alloca %struct.student*, align 8
  %2 = alloca %struct.student*, align 8
  %3 = call noalias i8* @malloc(i64 100) #3
  %4 = bitcast i8* %3 to %struct.student*
  store %struct.student* %4, %struct.student** %2, align 8
  store %struct.student* %4, %struct.student** %1, align 8
  %5 = load %struct.student*, %struct.student** %1, align 8
  %6 = getelementptr inbounds %struct.student, %struct.student* %5, i32 0, i32 7
  store %struct.student* null, %struct.student** %6, align 8
  %7 = load %struct.student*, %struct.student** %1, align 8
  %8 = getelementptr inbounds %struct.student, %struct.student* %7, i32 0, i32 0
  %9 = call i32 (i8*, ...) @__isoc99_scanf(i8* getelementptr inbounds ([3 x i8], [3 x i8]* @.str, i64 0, i64 0), [100 x i8]* %8)
  br label %10

10:                                               ; preds = %33, %0
  %11 = load %struct.student*, %struct.student** %1, align 8
  %12 = getelementptr inbounds %struct.student, %struct.student* %11, i32 0, i32 0
  %13 = getelementptr inbounds [100 x i8], [100 x i8]* %12, i64 0, i64 0
  %14 = load i8, i8* %13, align 8
  %15 = sext i8 %14 to i32
  %16 = icmp ne i32 %15, 101
  br i1 %16, label %31, label %17

17:                                               ; preds = %10
  %18 = load %struct.student*, %struct.student** %1, align 8
  %19 = getelementptr inbounds %struct.student, %struct.student* %18, i32 0, i32 0
  %20 = getelementptr inbounds [100 x i8], [100 x i8]* %19, i64 0, i64 1
  %21 = load i8, i8* %20, align 1
  %22 = sext i8 %21 to i32
  %23 = icmp ne i32 %22, 110
  br i1 %23, label %31, label %24

24:                                               ; preds = %17
  %25 = load %struct.student*, %struct.student** %1, align 8
  %26 = getelementptr inbounds %struct.student, %struct.student* %25, i32 0, i32 0
  %27 = getelementptr inbounds [100 x i8], [100 x i8]* %26, i64 0, i64 2
  %28 = load i8, i8* %27, align 2
  %29 = sext i8 %28 to i32
  %30 = icmp ne i32 %29, 100
  br label %31

31:                                               ; preds = %24, %17, %10
  %32 = phi i1 [ true, %17 ], [ true, %10 ], [ %30, %24 ]
  br i1 %32, label %33, label %57

33:                                               ; preds = %31
  %34 = load %struct.student*, %struct.student** %1, align 8
  %35 = getelementptr inbounds %struct.student, %struct.student* %34, i32 0, i32 1
  %36 = load %struct.student*, %struct.student** %1, align 8
  %37 = getelementptr inbounds %struct.student, %struct.student* %36, i32 0, i32 2
  %38 = load %struct.student*, %struct.student** %1, align 8
  %39 = getelementptr inbounds %struct.student, %struct.student* %38, i32 0, i32 3
  %40 = load %struct.student*, %struct.student** %1, align 8
  %41 = getelementptr inbounds %struct.student, %struct.student* %40, i32 0, i32 4
  %42 = load %struct.student*, %struct.student** %1, align 8
  %43 = getelementptr inbounds %struct.student, %struct.student* %42, i32 0, i32 5
  %44 = call i32 (i8*, ...) @__isoc99_scanf(i8* getelementptr inbounds ([12 x i8], [12 x i8]* @.str.1, i64 0, i64 0), [100 x i8]* %35, i8* %37, i32* %39, [20 x i8]* %41, [100 x i8]* %43)
  %45 = load %struct.student*, %struct.student** %1, align 8
  %46 = load %struct.student*, %struct.student** %2, align 8
  %47 = getelementptr inbounds %struct.student, %struct.student* %46, i32 0, i32 6
  store %struct.student* %45, %struct.student** %47, align 8
  %48 = load %struct.student*, %struct.student** %1, align 8
  store %struct.student* %48, %struct.student** %2, align 8
  %49 = call noalias i8* @malloc(i64 100) #3
  %50 = bitcast i8* %49 to %struct.student*
  store %struct.student* %50, %struct.student** %1, align 8
  %51 = load %struct.student*, %struct.student** %2, align 8
  %52 = load %struct.student*, %struct.student** %1, align 8
  %53 = getelementptr inbounds %struct.student, %struct.student* %52, i32 0, i32 7
  store %struct.student* %51, %struct.student** %53, align 8
  %54 = load %struct.student*, %struct.student** %1, align 8
  %55 = getelementptr inbounds %struct.student, %struct.student* %54, i32 0, i32 0
  %56 = call i32 (i8*, ...) @__isoc99_scanf(i8* getelementptr inbounds ([3 x i8], [3 x i8]* @.str, i64 0, i64 0), [100 x i8]* %55)
  br label %10

57:                                               ; preds = %31
  %58 = load %struct.student*, %struct.student** %2, align 8
  %59 = getelementptr inbounds %struct.student, %struct.student* %58, i32 0, i32 6
  store %struct.student* null, %struct.student** %59, align 8
  br label %60

60:                                               ; preds = %63, %57
  %61 = load %struct.student*, %struct.student** %2, align 8
  %62 = icmp ne %struct.student* %61, null
  br i1 %62, label %63, label %87

63:                                               ; preds = %60
  %64 = load %struct.student*, %struct.student** %2, align 8
  %65 = getelementptr inbounds %struct.student, %struct.student* %64, i32 0, i32 0
  %66 = getelementptr inbounds [100 x i8], [100 x i8]* %65, i64 0, i64 0
  %67 = load %struct.student*, %struct.student** %2, align 8
  %68 = getelementptr inbounds %struct.student, %struct.student* %67, i32 0, i32 1
  %69 = getelementptr inbounds [100 x i8], [100 x i8]* %68, i64 0, i64 0
  %70 = load %struct.student*, %struct.student** %2, align 8
  %71 = getelementptr inbounds %struct.student, %struct.student* %70, i32 0, i32 2
  %72 = load i8, i8* %71, align 8
  %73 = sext i8 %72 to i32
  %74 = load %struct.student*, %struct.student** %2, align 8
  %75 = getelementptr inbounds %struct.student, %struct.student* %74, i32 0, i32 3
  %76 = load i32, i32* %75, align 4
  %77 = load %struct.student*, %struct.student** %2, align 8
  %78 = getelementptr inbounds %struct.student, %struct.student* %77, i32 0, i32 4
  %79 = getelementptr inbounds [20 x i8], [20 x i8]* %78, i64 0, i64 0
  %80 = load %struct.student*, %struct.student** %2, align 8
  %81 = getelementptr inbounds %struct.student, %struct.student* %80, i32 0, i32 5
  %82 = getelementptr inbounds [100 x i8], [100 x i8]* %81, i64 0, i64 0
  %83 = call i32 (i8*, ...) @printf(i8* getelementptr inbounds ([19 x i8], [19 x i8]* @.str.2, i64 0, i64 0), i8* %66, i8* %69, i32 %73, i32 %76, i8* %79, i8* %82)
  %84 = load %struct.student*, %struct.student** %2, align 8
  %85 = getelementptr inbounds %struct.student, %struct.student* %84, i32 0, i32 7
  %86 = load %struct.student*, %struct.student** %85, align 8
  store %struct.student* %86, %struct.student** %2, align 8
  br label %60

87:                                               ; preds = %60
  ret void
}

; Function Attrs: nounwind
declare dso_local noalias i8* @malloc(i64) #1

declare dso_local i32 @__isoc99_scanf(i8*, ...) #2

declare dso_local i32 @printf(i8*, ...) #2


!llvm.module.flags = !{!0}
!llvm.ident = !{!1}

!0 = !{i32 1, !"wchar_size", i32 4}
!1 = !{!"clang version 10.0.0-4ubuntu1 "}
